target datalayout = "e-m:e-p270:32:32-p271:32:32-p272:64:64-i64:64-i128:128-f80:128-n8:16:32:64-S128"
target triple = "x86_64-pc-linux-gnu"

%struct.quic_conn_id_st = type { i8, [20 x i8] }
%union.bio_addr_st = type { %struct.sockaddr_in6, [84 x i8] }
%struct.sockaddr_in6 = type { i16, i16, i32, %struct.in6_addr, i32 }
%struct.in6_addr = type { %union.anon }
%union.anon = type { [4 x i32] }
%struct.OSSL_TIME = type { i64 }
%struct.quic_channel_st = type { ptr, %struct.anon, %struct.anon.0, ptr, ptr, ptr, ptr, ptr, ptr, ptr, i64, %union.bio_addr_st, ptr, ptr, ptr, %struct.quic_txfc_st, %struct.quic_rxfc_st, [3 x %struct.quic_rxfc_st], %struct.quic_rxfc_st, %struct.quic_rxfc_st, %struct.quic_stream_map_st, %struct.ossl_statm_st, ptr, ptr, ptr, ptr, ptr, ptr, ptr, ptr, [3 x ptr], [3 x ptr], %struct.quic_conn_id_st, %struct.quic_conn_id_st, %struct.quic_conn_id_st, %struct.quic_conn_id_st, %struct.quic_conn_id_st, %struct.quic_conn_id_st, i64, i64, i64, i64, i64, i64, i64, i64, i64, i64, i8, i16, ptr, i64, i64, i64, i64, i64, i64, i64, i64, i64, i64, i64, i64, i64, %struct.quic_terminate_cause_st, %struct.OSSL_TIME, %struct.OSSL_TIME, %struct.OSSL_TIME, %struct.OSSL_TIME, %struct.OSSL_TIME, i64, i64, i64, ptr, ptr, i64, ptr }
%struct.anon = type { ptr, ptr }
%struct.anon.0 = type { ptr, ptr }
%struct.quic_txfc_st = type { ptr, i64, i64, i8 }
%struct.quic_rxfc_st = type { i64, i64, i64, i64, i64, i64, i64, %struct.OSSL_TIME, ptr, ptr, ptr, i8, i8, i8, i8 }
%struct.quic_stream_map_st = type { ptr, %struct.quic_stream_list_node_st, %struct.quic_stream_list_node_st, %struct.quic_stream_list_node_st, i64, i64, i64, i64, i64, ptr, ptr, ptr, ptr, ptr, i32 }
%struct.quic_stream_list_node_st = type { ptr, ptr }
%struct.ossl_statm_st = type { %struct.OSSL_TIME, %struct.OSSL_TIME, %struct.OSSL_TIME, %struct.OSSL_TIME, i8 }
%struct.quic_terminate_cause_st = type { i64, i64, ptr, i64, i8 }

; Function Attrs: inlinehint nounwind uwtable
define internal i32 @ossl_quic_enc_level_to_pn_space(i32 noundef %0) #4 {
  %2 = alloca i32, align 4
  %3 = alloca i32, align 4
  store i32 %0, ptr %3, align 4, !tbaa !80
  %4 = load i32, ptr %3, align 4, !tbaa !80
  switch i32 %4, label %8 [
    i32 0, label %5
    i32 2, label %6
    i32 1, label %7
    i32 3, label %7
  ]

5:                                                ; preds = %1
  store i32 0, ptr %2, align 4
  br label %9

6:                                                ; preds = %1
  store i32 1, ptr %2, align 4
  br label %9

7:                                                ; preds = %1, %1
  store i32 2, ptr %2, align 4
  br label %9

8:                                                ; preds = %1
  store i32 2, ptr %2, align 4
  br label %9

9:                                                ; preds = %8, %7, %6, %5
  %10 = load i32, ptr %2, align 4
  ret i32 %10
}

; Function Attrs: nounwind uwtable
define internal i32 @ch_discard_el(ptr noundef %0, i32 noundef %1) #0 {
  %3 = alloca i32, align 4
  %4 = alloca ptr, align 8
  %5 = alloca i32, align 4
  %6 = alloca i32, align 4
  %7 = alloca i32, align 4
  store ptr %0, ptr %4, align 8, !tbaa !3
  store i32 %1, ptr %5, align 4, !tbaa !80
  %8 = load i32, ptr %5, align 4, !tbaa !80
  %9 = icmp ult i32 %8, 3
  %10 = zext i1 %9 to i32
  %11 = icmp ne i32 %10, 0
  %12 = xor i1 %11, true
  %13 = xor i1 %12, true
  %14 = zext i1 %13 to i32
  %15 = sext i32 %14 to i64
  %16 = call i64 @llvm.expect.i64(i64 %15, i64 1)
  %17 = icmp ne i64 %16, 0
  br i1 %17, label %19, label %18

18:                                               ; preds = %2
  store i32 0, ptr %3, align 4
  br label %131

19:                                               ; preds = %2
  %20 = load ptr, ptr %4, align 8, !tbaa !3
  %21 = getelementptr inbounds nuw %struct.quic_channel_st, ptr %20, i32 0, i32 72
  %22 = load i64, ptr %21, align 8
  %23 = lshr i64 %22, 20
  %24 = and i64 %23, 15
  %25 = trunc i64 %24 to i32
  %26 = load i32, ptr %5, align 4, !tbaa !80
  %27 = shl i32 1, %26
  %28 = and i32 %25, %27
  %29 = icmp ne i32 %28, 0
  br i1 %29, label %30, label %31

30:                                               ; preds = %19
  store i32 1, ptr %3, align 4
  br label %131

31:                                               ; preds = %19
  %32 = load ptr, ptr %4, align 8, !tbaa !3
  %33 = getelementptr inbounds nuw %struct.quic_channel_st, ptr %32, i32 0, i32 12
  %34 = load ptr, ptr %33, align 8, !tbaa !112
  %35 = load i32, ptr %5, align 4, !tbaa !80
  %36 = call i32 @ossl_quic_tx_packetiser_discard_enc_level(ptr noundef %34, i32 noundef %35)
  %37 = load ptr, ptr %4, align 8, !tbaa !3
  %38 = getelementptr inbounds nuw %struct.quic_channel_st, ptr %37, i32 0, i32 26
  %39 = load ptr, ptr %38, align 8, !tbaa !119
  %40 = load i32, ptr %5, align 4, !tbaa !80
  %41 = call i32 @ossl_qrx_discard_enc_level(ptr noundef %39, i32 noundef %40)
  %42 = load ptr, ptr %4, align 8, !tbaa !3
  %43 = getelementptr inbounds nuw %struct.quic_channel_st, ptr %42, i32 0, i32 25
  %44 = load ptr, ptr %43, align 8, !tbaa !74
  %45 = load i32, ptr %5, align 4, !tbaa !80
  %46 = call i32 @ossl_qtx_discard_enc_level(ptr noundef %44, i32 noundef %45)
  %47 = load i32, ptr %5, align 4, !tbaa !80
  %48 = icmp ne i32 %47, 1
  br i1 %48, label %49, label %115

49:                                               ; preds = %31
  call void @llvm.lifetime.start.p0(i64 4, ptr %6) #9
  %50 = load i32, ptr %5, align 4, !tbaa !80
  %51 = call i32 @ossl_quic_enc_level_to_pn_space(i32 noundef %50)
  store i32 %51, ptr %6, align 4, !tbaa !80
  %52 = load ptr, ptr %4, align 8, !tbaa !3
  %53 = getelementptr inbounds nuw %struct.quic_channel_st, ptr %52, i32 0, i32 24
  %54 = load ptr, ptr %53, align 8, !tbaa !87
  %55 = load i32, ptr %6, align 4, !tbaa !80
  %56 = call i32 @ossl_ackm_on_pkt_space_discarded(ptr noundef %54, i32 noundef %55)
  %57 = load ptr, ptr %4, align 8, !tbaa !3
  %58 = getelementptr inbounds nuw %struct.quic_channel_st, ptr %57, i32 0, i32 30
  %59 = load i32, ptr %6, align 4, !tbaa !80
  %60 = zext i32 %59 to i64
  %61 = getelementptr inbounds nuw [3 x ptr], ptr %58, i64 0, i64 %60
  %62 = load ptr, ptr %61, align 8, !tbaa !109
  %63 = icmp ne ptr %62, null
  %64 = zext i1 %63 to i32
  %65 = icmp ne i32 %64, 0
  %66 = xor i1 %65, true
  %67 = xor i1 %66, true
  %68 = zext i1 %67 to i32
  %69 = sext i32 %68 to i64
  %70 = call i64 @llvm.expect.i64(i64 %69, i64 1)
  %71 = icmp ne i64 %70, 0
  br i1 %71, label %72, label %88

72:                                               ; preds = %49
  %73 = load ptr, ptr %4, align 8, !tbaa !3
  %74 = getelementptr inbounds nuw %struct.quic_channel_st, ptr %73, i32 0, i32 31
  %75 = load i32, ptr %6, align 4, !tbaa !80
  %76 = zext i32 %75 to i64
  %77 = getelementptr inbounds nuw [3 x ptr], ptr %74, i64 0, i64 %76
  %78 = load ptr, ptr %77, align 8, !tbaa !120
  %79 = icmp ne ptr %78, null
  %80 = zext i1 %79 to i32
  %81 = icmp ne i32 %80, 0
  %82 = xor i1 %81, true
  %83 = xor i1 %82, true
  %84 = zext i1 %83 to i32
  %85 = sext i32 %84 to i64
  %86 = call i64 @llvm.expect.i64(i64 %85, i64 1)
  %87 = icmp ne i64 %86, 0
  br i1 %87, label %89, label %88

88:                                               ; preds = %72, %49
  store i32 0, ptr %3, align 4
  store i32 1, ptr %7, align 4
  br label %112

89:                                               ; preds = %72
  %90 = load ptr, ptr %4, align 8, !tbaa !3
  %91 = getelementptr inbounds nuw %struct.quic_channel_st, ptr %90, i32 0, i32 30
  %92 = load i32, ptr %6, align 4, !tbaa !80
  %93 = zext i32 %92 to i64
  %94 = getelementptr inbounds nuw [3 x ptr], ptr %91, i64 0, i64 %93
  %95 = load ptr, ptr %94, align 8, !tbaa !109
  call void @ossl_quic_sstream_free(ptr noundef %95)
  %96 = load ptr, ptr %4, align 8, !tbaa !3
  %97 = getelementptr inbounds nuw %struct.quic_channel_st, ptr %96, i32 0, i32 30
  %98 = load i32, ptr %6, align 4, !tbaa !80
  %99 = zext i32 %98 to i64
  %100 = getelementptr inbounds nuw [3 x ptr], ptr %97, i64 0, i64 %99
  store ptr null, ptr %100, align 8, !tbaa !109
  %101 = load ptr, ptr %4, align 8, !tbaa !3
  %102 = getelementptr inbounds nuw %struct.quic_channel_st, ptr %101, i32 0, i32 31
  %103 = load i32, ptr %6, align 4, !tbaa !80
  %104 = zext i32 %103 to i64
  %105 = getelementptr inbounds nuw [3 x ptr], ptr %102, i64 0, i64 %104
  %106 = load ptr, ptr %105, align 8, !tbaa !120
  call void @ossl_quic_rstream_free(ptr noundef %106)
  %107 = load ptr, ptr %4, align 8, !tbaa !3
  %108 = getelementptr inbounds nuw %struct.quic_channel_st, ptr %107, i32 0, i32 31
  %109 = load i32, ptr %6, align 4, !tbaa !80
  %110 = zext i32 %109 to i64
  %111 = getelementptr inbounds nuw [3 x ptr], ptr %108, i64 0, i64 %110
  store ptr null, ptr %111, align 8, !tbaa !120
  store i32 0, ptr %7, align 4
  br label %112

112:                                              ; preds = %89, %88
  call void @llvm.lifetime.end.p0(i64 4, ptr %6) #9
  %113 = load i32, ptr %7, align 4
  switch i32 %113, label %133 [
    i32 0, label %114
    i32 1, label %131
  ]

114:                                              ; preds = %112
  br label %115

115:                                              ; preds = %114, %31
  %116 = load i32, ptr %5, align 4, !tbaa !80
  %117 = shl i32 1, %116
  %118 = load ptr, ptr %4, align 8, !tbaa !3
  %119 = getelementptr inbounds nuw %struct.quic_channel_st, ptr %118, i32 0, i32 72
  %120 = load i64, ptr %119, align 8
  %121 = lshr i64 %120, 20
  %122 = and i64 %121, 15
  %123 = trunc i64 %122 to i32
  %124 = or i32 %123, %117
  %125 = zext i32 %124 to i64
  %126 = load i64, ptr %119, align 8
  %127 = and i64 %125, 15
  %128 = shl i64 %127, 20
  %129 = and i64 %126, -15728641
  %130 = or i64 %129, %128
  store i64 %130, ptr %119, align 8
  store i32 1, ptr %3, align 4
  br label %131

131:                                              ; preds = %115, %112, %30, %18
  %132 = load i32, ptr %3, align 4
  ret i32 %132

133:                                              ; preds = %112
  unreachable
}