; Function Attrs: nounwind uwtable
define internal fastcc void @ch_discard_el(ptr noundef captures(none) %0, i32 noundef range(i32 0, 3) %1) unnamed_addr #0 {
  %3 = getelementptr inbounds nuw i8, ptr %0, i64 1568
  %4 = load i64, ptr %3, align 8
  %5 = trunc i64 %4 to i32
  %6 = lshr i32 %5, 20
  %7 = shl nuw nsw i32 1, %1
  %8 = and i32 %6, %7
  %.not = icmp eq i32 %8, 0
  br i1 %.not, label %9, label %.thread

9:                                                ; preds = %2
  %10 = getelementptr inbounds nuw i8, ptr %0, i64 216
  %11 = load ptr, ptr %10, align 8, !tbaa !109
  %12 = tail call i32 @ossl_quic_tx_packetiser_discard_enc_level(ptr noundef %11, i32 noundef %1) #15
  %13 = getelementptr inbounds nuw i8, ptr %0, i64 1064
  %14 = load ptr, ptr %13, align 8, !tbaa !116
  %15 = tail call i32 @ossl_qrx_discard_enc_level(ptr noundef %14, i32 noundef %1) #15
  %16 = getelementptr inbounds nuw i8, ptr %0, i64 1056
  %17 = load ptr, ptr %16, align 8, !tbaa !72
  %18 = tail call i32 @ossl_qtx_discard_enc_level(ptr noundef %17, i32 noundef %1) #15
  %.not31 = icmp eq i32 %1, 1
  br i1 %.not31, label %33, label %19

19:                                               ; preds = %9
  %switch.selectcmp.i = icmp eq i32 %1, 2
  %switch.select.i = select i1 %switch.selectcmp.i, i32 1, i32 2
  %switch.selectcmp2.i = icmp eq i32 %1, 0
  %switch.select3.i = select i1 %switch.selectcmp2.i, i32 0, i32 %switch.select.i
  %20 = getelementptr inbounds nuw i8, ptr %0, i64 1048
  %21 = load ptr, ptr %20, align 8, !tbaa !84
  %22 = tail call i32 @ossl_ackm_on_pkt_space_discarded(ptr noundef %21, i32 noundef %switch.select3.i) #15
  %23 = getelementptr inbounds nuw i8, ptr %0, i64 1096
  %24 = zext nneg i32 %switch.select3.i to i64
  %25 = getelementptr inbounds nuw [3 x ptr], ptr %23, i64 0, i64 %24
  %26 = load ptr, ptr %25, align 8, !tbaa !106
  %.not32 = icmp eq ptr %26, null
  br i1 %.not32, label %.thread, label %27, !prof !237

27:                                               ; preds = %19
  %28 = getelementptr inbounds nuw i8, ptr %0, i64 1120
  %29 = getelementptr inbounds nuw [3 x ptr], ptr %28, i64 0, i64 %24
  %30 = load ptr, ptr %29, align 8, !tbaa !118
  %.not33 = icmp eq ptr %30, null
  br i1 %.not33, label %.thread, label %31, !prof !237

31:                                               ; preds = %27
  tail call void @ossl_quic_sstream_free(ptr noundef nonnull %26) #15
  store ptr null, ptr %25, align 8, !tbaa !106
  %32 = load ptr, ptr %29, align 8, !tbaa !118
  tail call void @ossl_quic_rstream_free(ptr noundef %32) #15
  store ptr null, ptr %29, align 8, !tbaa !118
  br label %33

33:                                               ; preds = %31, %9
  %34 = load i64, ptr %3, align 8
  %35 = trunc i64 %34 to i32
  %36 = shl nuw nsw i32 1048576, %1
  %.mask = and i32 %35, 15728640
  %37 = or i32 %.mask, %36
  %38 = zext nneg i32 %37 to i64
  %39 = and i64 %34, -15728641
  %40 = or disjoint i64 %39, %38
  store i64 %40, ptr %3, align 8
  br label %.thread

.thread:                                          ; preds = %19, %27, %2, %33
  ret void
}